target datalayout = "e-m:e-p270:32:32-p271:32:32-p272:64:64-i64:64-i128:128-f80:128-n8:16:32:64-S128"
target triple = "x86_64-pc-linux-gnu"

%struct._capture_file = type { ptr, i32, ptr, ptr, i32, i32, i32, i64, i16, i32, i32, i32, ptr, i32, i64, i32, i32, i32, i32, i32, i32, %struct.nstime_t, i32, ptr, ptr, ptr, i32, i32, i32, ptr, i32, i32, i32, i32, i32, i32, i32, i32, ptr, i32, i32, i32, %struct.packet_provider_data, i32, i32, %struct.epan_column_info, ptr, ptr, ptr, %struct.wtap_rec, %struct.Buffer, ptr, i64, i32 }
%struct.nstime_t = type { i64, i32 }
%struct.packet_provider_data = type { ptr, ptr, ptr, ptr, ptr, ptr }
%struct.epan_column_info = type { ptr, i32, ptr, ptr, ptr, %struct.col_expr_t, i32, ptr }
%struct.col_expr_t = type { ptr, ptr }
%struct.wtap_rec = type { i32, i32, i32, %struct.nstime_t, i32, %struct.nstime_t, i32, %union.anon, ptr, i32, %struct.Buffer }
%union.anon = type { %struct.wtap_packet_header }
%struct.wtap_packet_header = type { i32, i32, i32, i32, %union.wtap_pseudo_header }
%union.wtap_pseudo_header = type { %struct.erf_mc_phdr }
%struct.erf_mc_phdr = type { %struct.erf_phdr, [16 x %struct.erf_ehdr], %union.anon.2 }
%struct.erf_phdr = type { i64, i8, i8, i16, i16, i16 }
%struct.erf_ehdr = type { i64 }
%union.anon.2 = type { i32 }
%struct.Buffer = type { ptr, i64, i64, i64 }
%class.WirelessTimeline = type { %class.QWidget, double, double, double, ptr, [64 x [3 x float]], i64, i64, i32, ptr, ptr, ptr, ptr }
%class.QWidget = type { %class.QObject, %class.QPaintDevice.base, ptr }
%class.QObject = type { ptr, %class.QScopedPointer }
%class.QScopedPointer = type { ptr }
%class.QPaintDevice.base = type <{ ptr, i16 }>
%class.QWidgetData = type { i64, i32, %class.QFlags.17, i32, %class.QRect, [4 x i8], %class.QPalette, %class.QFont, %class.QRect }
%class.QFlags.17 = type { i32 }
%class.QPalette = type <{ ptr, i32, [4 x i8] }>
%class.QFont = type <{ %class.QExplicitlySharedDataPointer, i32, [4 x i8] }>
%class.QExplicitlySharedDataPointer = type { ptr }
%class.QRect = type { i32, i32, i32, i32 }
%struct.wlan_radio = type { ptr, i32, i64, i64, i64, i16, i8 }

@cfile = external global %struct._capture_file, align 8

; Function Attrs: mustprogress uwtable
define noundef ptr @_ZN16WirelessTimeline14get_wlan_radioEj(ptr noundef nonnull align 8 dereferenceable(896) %0, i32 noundef %1) #0 align 2 {
  %3 = alloca ptr, align 8
  %4 = alloca i32, align 4
  store ptr %0, ptr %3, align 8
  store i32 %1, ptr %4, align 4
  %5 = load ptr, ptr %3, align 8
  %6 = getelementptr inbounds %class.WirelessTimeline, ptr %5, i32 0, i32 12
  %7 = load ptr, ptr %6, align 8
  %8 = load i32, ptr %4, align 4
  %9 = zext i32 %8 to i64
  %10 = inttoptr i64 %9 to ptr
  %11 = call ptr @g_hash_table_lookup(ptr noundef %7, ptr noundef %10)
  ret ptr %11
}

; Function Attrs: mustprogress nounwind uwtable
define linkonce_odr noundef i32 @_ZNK5QRect5widthEv(ptr noundef nonnull align 4 dereferenceable(16) %0) #1 comdat align 2 {
  %2 = alloca ptr, align 8
  store ptr %0, ptr %2, align 8
  %3 = load ptr, ptr %2, align 8
  %4 = getelementptr inbounds %class.QRect, ptr %3, i32 0, i32 2
  %5 = load i32, ptr %4, align 4
  %6 = getelementptr inbounds %class.QRect, ptr %3, i32 0, i32 0
  %7 = load i32, ptr %6, align 4
  %8 = sub i32 %5, %7
  %9 = add i32 %8, 1
  ret i32 %9
}

; Function Attrs: mustprogress uwtable
define noundef i32 @_ZN16WirelessTimeline15find_packet_tsfEm(ptr noundef nonnull align 8 dereferenceable(896) %0, i64 noundef %1) #0 align 2 {
  %3 = alloca i32, align 4
  %4 = alloca ptr, align 8
  %5 = alloca i64, align 8
  %6 = alloca i32, align 4
  %7 = alloca i32, align 4
  %8 = alloca i64, align 8
  %9 = alloca i64, align 8
  %10 = alloca i32, align 4
  %11 = alloca i64, align 8
  store ptr %0, ptr %4, align 8
  store i64 %1, ptr %5, align 8
  %12 = load ptr, ptr %4, align 8
  %13 = load i32, ptr getelementptr inbounds (%struct._capture_file, ptr @cfile, i32 0, i32 13), align 8
  %14 = icmp ult i32 %13, 1
  br i1 %14, label %15, label %16

15:                                               ; preds = %2
  store i32 0, ptr %3, align 4
  br label %70

16:                                               ; preds = %2
  %17 = load i32, ptr getelementptr inbounds (%struct._capture_file, ptr @cfile, i32 0, i32 13), align 8
  %18 = icmp ult i32 %17, 2
  br i1 %18, label %19, label %20

19:                                               ; preds = %16
  store i32 1, ptr %3, align 4
  br label %70

20:                                               ; preds = %16
  store i32 1, ptr %6, align 4
  %21 = load i32, ptr getelementptr inbounds (%struct._capture_file, ptr @cfile, i32 0, i32 13), align 8
  %22 = sub i32 %21, 1
  store i32 %22, ptr %7, align 4
  %23 = load i32, ptr %6, align 4
  %24 = call noundef ptr @_ZN16WirelessTimeline14get_wlan_radioEj(ptr noundef nonnull align 8 dereferenceable(896) %12, i32 noundef %23)
  %25 = getelementptr inbounds %struct.wlan_radio, ptr %24, i32 0, i32 3
  %26 = load i64, ptr %25, align 8
  store i64 %26, ptr %8, align 8
  %27 = load i32, ptr %7, align 4
  %28 = call noundef ptr @_ZN16WirelessTimeline14get_wlan_radioEj(ptr noundef nonnull align 8 dereferenceable(896) %12, i32 noundef %27)
  %29 = getelementptr inbounds %struct.wlan_radio, ptr %28, i32 0, i32 3
  %30 = load i64, ptr %29, align 8
  store i64 %30, ptr %9, align 8
  br label %31

31:                                               ; preds = %69, %20
  %32 = load i64, ptr %5, align 8
  %33 = load i64, ptr %9, align 8
  %34 = icmp uge i64 %32, %33
  br i1 %34, label %35, label %38

35:                                               ; preds = %31
  %36 = load i32, ptr %7, align 4
  %37 = add i32 %36, 1
  store i32 %37, ptr %3, align 4
  br label %70

38:                                               ; preds = %31
  %39 = load i64, ptr %5, align 8
  %40 = load i64, ptr %8, align 8
  %41 = icmp ult i64 %39, %40
  br i1 %41, label %42, label %44

42:                                               ; preds = %38
  %43 = load i32, ptr %6, align 4
  store i32 %43, ptr %3, align 4
  br label %70

44:                                               ; preds = %38
  %45 = load i32, ptr %6, align 4
  %46 = load i32, ptr %7, align 4
  %47 = add i32 %45, %46
  %48 = udiv i32 %47, 2
  store i32 %48, ptr %10, align 4
  %49 = load i32, ptr %10, align 4
  %50 = load i32, ptr %6, align 4
  %51 = icmp eq i32 %49, %50
  br i1 %51, label %52, label %55

52:                                               ; preds = %44
  %53 = load i32, ptr %10, align 4
  %54 = add i32 %53, 1
  store i32 %54, ptr %3, align 4
  br label %70

55:                                               ; preds = %44
  %56 = load i32, ptr %10, align 4
  %57 = call noundef ptr @_ZN16WirelessTimeline14get_wlan_radioEj(ptr noundef nonnull align 8 dereferenceable(896) %12, i32 noundef %56)
  %58 = getelementptr inbounds %struct.wlan_radio, ptr %57, i32 0, i32 3
  %59 = load i64, ptr %58, align 8
  store i64 %59, ptr %11, align 8
  %60 = load i64, ptr %5, align 8
  %61 = load i64, ptr %11, align 8
  %62 = icmp uge i64 %60, %61
  br i1 %62, label %63, label %66

63:                                               ; preds = %55
  %64 = load i32, ptr %10, align 4
  store i32 %64, ptr %6, align 4
  %65 = load i64, ptr %11, align 8
  store i64 %65, ptr %8, align 8
  br label %69

66:                                               ; preds = %55
  %67 = load i32, ptr %10, align 4
  store i32 %67, ptr %7, align 4
  %68 = load i64, ptr %11, align 8
  store i64 %68, ptr %9, align 8
  br label %69

69:                                               ; preds = %66, %63
  br label %31, !llvm.loop !4

70:                                               ; preds = %52, %42, %35, %19, %15
  %71 = load i32, ptr %3, align 4
  ret i32 %71
}

; Function Attrs: mustprogress nounwind uwtable
define linkonce_odr noundef i32 @_ZNK7QWidget5widthEv(ptr noundef nonnull align 8 dereferenceable(40) %0) #1 comdat align 2 {
  %2 = alloca ptr, align 8
  store ptr %0, ptr %2, align 8
  %3 = load ptr, ptr %2, align 8
  %4 = getelementptr inbounds %class.QWidget, ptr %3, i32 0, i32 2
  %5 = load ptr, ptr %4, align 8
  %6 = getelementptr inbounds %class.QWidgetData, ptr %5, i32 0, i32 4
  %7 = call noundef i32 @_ZNK5QRect5widthEv(ptr noundef nonnull align 4 dereferenceable(16) %6) #13
  ret i32 %7
}

; Function Attrs: mustprogress uwtable
define noundef i32 @_ZN16WirelessTimeline11find_packetEd(ptr noundef nonnull align 8 dereferenceable(896) %0, double noundef %1) #0 align 2 {
  %3 = alloca ptr, align 8
  %4 = alloca double, align 8
  %5 = alloca i64, align 8
  store ptr %0, ptr %3, align 8
  store double %1, ptr %4, align 8
  %6 = load ptr, ptr %3, align 8
  %7 = getelementptr inbounds %class.WirelessTimeline, ptr %6, i32 0, i32 6
  %8 = load i64, ptr %7, align 8
  %9 = uitofp i64 %8 to double
  %10 = load double, ptr %4, align 8
  %11 = call noundef i32 @_ZNK7QWidget5widthEv(ptr noundef nonnull align 8 dereferenceable(40) %6)
  %12 = sitofp i32 %11 to double
  %13 = fdiv double %10, %12
  %14 = getelementptr inbounds %class.WirelessTimeline, ptr %6, i32 0, i32 7
  %15 = load i64, ptr %14, align 8
  %16 = getelementptr inbounds %class.WirelessTimeline, ptr %6, i32 0, i32 6
  %17 = load i64, ptr %16, align 8
  %18 = sub i64 %15, %17
  %19 = uitofp i64 %18 to double
  %20 = call double @llvm.fmuladd.f64(double %13, double %19, double %9)
  %21 = fptoui double %20 to i64
  store i64 %21, ptr %5, align 8
  %22 = load i64, ptr %5, align 8
  %23 = call noundef i32 @_ZN16WirelessTimeline15find_packet_tsfEm(ptr noundef nonnull align 8 dereferenceable(896) %6, i64 noundef %22)
  ret i32 %23
}