; Function Attrs: mustprogress uwtable
define noundef i32 @_ZN16WirelessTimeline11find_packetEd(ptr nocapture noundef nonnull readonly align 8 dereferenceable(896) %0, double noundef %1) local_unnamed_addr #0 align 2 {
  %3 = getelementptr inbounds i8, ptr %0, i64 840
  %4 = load i64, ptr %3, align 8
  %5 = uitofp i64 %4 to double
  %6 = getelementptr inbounds i8, ptr %0, i64 32
  %7 = load ptr, ptr %6, align 8
  %8 = getelementptr inbounds i8, ptr %7, i64 20
  %9 = getelementptr inbounds i8, ptr %7, i64 28
  %10 = load i32, ptr %9, align 4
  %11 = load i32, ptr %8, align 4
  %12 = add i32 %10, 1
  %13 = sub i32 %12, %11
  %14 = sitofp i32 %13 to double
  %15 = fdiv double %1, %14
  %16 = getelementptr inbounds i8, ptr %0, i64 848
  %17 = load i64, ptr %16, align 8
  %18 = sub i64 %17, %4
  %19 = uitofp i64 %18 to double
  %20 = tail call double @llvm.fmuladd.f64(double %15, double %19, double %5)
  %21 = fptoui double %20 to i64
  %22 = load i32, ptr getelementptr inbounds (%struct._capture_file, ptr @cfile, i64 0, i32 13), align 8
  switch i32 %22, label %24 [
    i32 0, label %_ZN16WirelessTimeline15find_packet_tsfEm.exit
    i32 1, label %23
  ]

23:                                               ; preds = %2
  br label %_ZN16WirelessTimeline15find_packet_tsfEm.exit

24:                                               ; preds = %2
  %25 = add i32 %22, -1
  %26 = getelementptr inbounds i8, ptr %0, i64 888
  %27 = load ptr, ptr %26, align 8
  %28 = tail call noundef ptr @g_hash_table_lookup(ptr noundef %27, ptr noundef nonnull inttoptr (i64 1 to ptr))
  %29 = getelementptr inbounds i8, ptr %28, i64 24
  %30 = load i64, ptr %29, align 8
  %31 = load ptr, ptr %26, align 8
  %32 = zext i32 %25 to i64
  %33 = inttoptr i64 %32 to ptr
  %34 = tail call noundef ptr @g_hash_table_lookup(ptr noundef %31, ptr noundef %33)
  %35 = getelementptr inbounds i8, ptr %34, i64 24
  %36 = load i64, ptr %35, align 8
  %.not39.i = icmp ugt i64 %36, %21
  br i1 %.not39.i, label %.lr.ph.i, label %_ZN16WirelessTimeline15find_packet_tsfEm.exit

._crit_edge.loopexit.i:                           ; preds = %45
  %37 = add nuw i32 %..026.i, 1
  br label %_ZN16WirelessTimeline15find_packet_tsfEm.exit

.lr.ph.i:                                         ; preds = %24, %45
  %.02143.i = phi i32 [ %.021..i, %45 ], [ 1, %24 ]
  %.02242.i = phi i64 [ %..022.i, %45 ], [ %36, %24 ]
  %.02441.i = phi i64 [ %.024..i, %45 ], [ %30, %24 ]
  %.02640.i = phi i32 [ %..026.i, %45 ], [ %25, %24 ]
  %38 = icmp ugt i64 %.02441.i, %21
  br i1 %38, label %_ZN16WirelessTimeline15find_packet_tsfEm.exit, label %39

39:                                               ; preds = %.lr.ph.i
  %40 = add i32 %.02640.i, %.02143.i
  %41 = lshr i32 %40, 1
  %42 = icmp eq i32 %41, %.02143.i
  br i1 %42, label %43, label %45

43:                                               ; preds = %39
  %44 = add nuw i32 %.02143.i, 1
  br label %_ZN16WirelessTimeline15find_packet_tsfEm.exit

45:                                               ; preds = %39
  %46 = load ptr, ptr %26, align 8
  %47 = zext nneg i32 %41 to i64
  %48 = inttoptr i64 %47 to ptr
  %49 = tail call noundef ptr @g_hash_table_lookup(ptr noundef %46, ptr noundef %48)
  %50 = getelementptr inbounds i8, ptr %49, i64 24
  %51 = load i64, ptr %50, align 8
  %.not34.i = icmp ugt i64 %51, %21
  %..026.i = select i1 %.not34.i, i32 %41, i32 %.02640.i
  %.024..i = select i1 %.not34.i, i64 %.02441.i, i64 %51
  %..022.i = select i1 %.not34.i, i64 %51, i64 %.02242.i
  %.021..i = select i1 %.not34.i, i32 %.02143.i, i32 %41
  %.not.i = icmp ugt i64 %..022.i, %21
  br i1 %.not.i, label %.lr.ph.i, label %._crit_edge.loopexit.i, !llvm.loop !4

_ZN16WirelessTimeline15find_packet_tsfEm.exit:    ; preds = %.lr.ph.i, %2, %23, %24, %._crit_edge.loopexit.i, %43
  %.0.i = phi i32 [ 1, %23 ], [ %44, %43 ], [ %22, %2 ], [ %22, %24 ], [ %37, %._crit_edge.loopexit.i ], [ %.02143.i, %.lr.ph.i ]
  ret i32 %.0.i
}